target datalayout = "e-m:e-p270:32:32-p271:32:32-p272:64:64-i64:64-i128:128-f80:128-n8:16:32:64-S128"
target triple = "x86_64-pc-linux-gnu"

%"class.cvc5::internal::TypeNode" = type { ptr }
%"class.cvc5::internal::expr::NodeValue" = type { i64, i64, ptr, [0 x ptr] }

; Function Attrs: inlinehint mustprogress nounwind uwtable
define linkonce_odr hidden noundef i32 @_ZN4cvc58internal4expr9NodeValue11dKindToKindEj(i32 noundef %0) #5 comdat align 2 {
  %2 = alloca i32, align 4
  store i32 %0, ptr %2, align 4, !tbaa !47
  %3 = load i32, ptr %2, align 4, !tbaa !47
  %4 = icmp eq i32 %3, 1023
  br i1 %4, label %5, label %6

5:                                                ; preds = %1
  br label %8

6:                                                ; preds = %1
  %7 = load i32, ptr %2, align 4, !tbaa !47
  br label %8

8:                                                ; preds = %6, %5
  %9 = phi i32 [ -1, %5 ], [ %7, %6 ]
  ret i32 %9
}

; Function Attrs: mustprogress uwtable
define linkonce_odr hidden noundef i32 @_ZNK4cvc58internal4expr9NodeValue7getKindEv(ptr noundef nonnull align 8 dereferenceable(24) %0) #6 comdat align 2 {
  %2 = alloca ptr, align 8
  store ptr %0, ptr %2, align 8, !tbaa !4
  %3 = load ptr, ptr %2, align 8
  %4 = getelementptr inbounds nuw %"class.cvc5::internal::expr::NodeValue", ptr %3, i32 0, i32 1
  %5 = load i64, ptr %4, align 8
  %6 = and i64 %5, 1023
  %7 = trunc i64 %6 to i32
  %8 = call noundef i32 @_ZN4cvc58internal4expr9NodeValue11dKindToKindEj(i32 noundef %7)
  ret i32 %8
}

; Function Attrs: mustprogress uwtable
define linkonce_odr hidden void @_ZN4cvc58internal4expr9NodeValue3incEv(ptr noundef nonnull align 8 dereferenceable(24) %0) #6 comdat align 2 {
  %2 = alloca ptr, align 8
  store ptr %0, ptr %2, align 8, !tbaa !4
  %3 = load ptr, ptr %2, align 8
  %4 = load i64, ptr %3, align 8
  %5 = lshr i64 %4, 40
  %6 = and i64 %5, 1048575
  %7 = trunc i64 %6 to i32
  %8 = icmp ult i32 %7, 1048574
  %9 = zext i1 %8 to i64
  %10 = call i64 @llvm.expect.i64(i64 %9, i64 1)
  %11 = icmp ne i64 %10, 0
  br i1 %11, label %12, label %24

12:                                               ; preds = %1
  %13 = load i64, ptr %3, align 8
  %14 = lshr i64 %13, 40
  %15 = and i64 %14, 1048575
  %16 = trunc i64 %15 to i32
  %17 = add i32 %16, 1
  %18 = zext i32 %17 to i64
  %19 = load i64, ptr %3, align 8
  %20 = and i64 %18, 1048575
  %21 = shl i64 %20, 40
  %22 = and i64 %19, -1152920405095219201
  %23 = or i64 %22, %21
  store i64 %23, ptr %3, align 8
  br label %46

24:                                               ; preds = %1
  %25 = load i64, ptr %3, align 8
  %26 = lshr i64 %25, 40
  %27 = and i64 %26, 1048575
  %28 = trunc i64 %27 to i32
  %29 = icmp eq i32 %28, 1048574
  %30 = zext i1 %29 to i64
  %31 = call i64 @llvm.expect.i64(i64 %30, i64 0)
  %32 = icmp ne i64 %31, 0
  br i1 %32, label %33, label %45

33:                                               ; preds = %24
  %34 = load i64, ptr %3, align 8
  %35 = lshr i64 %34, 40
  %36 = and i64 %35, 1048575
  %37 = trunc i64 %36 to i32
  %38 = add i32 %37, 1
  %39 = zext i32 %38 to i64
  %40 = load i64, ptr %3, align 8
  %41 = and i64 %39, 1048575
  %42 = shl i64 %41, 40
  %43 = and i64 %40, -1152920405095219201
  %44 = or i64 %43, %42
  store i64 %44, ptr %3, align 8
  call void @_ZN4cvc58internal4expr9NodeValue20markRefCountMaxedOutEv(ptr noundef nonnull align 8 dereferenceable(24) %3)
  br label %45

45:                                               ; preds = %33, %24
  br label %46

46:                                               ; preds = %45, %12
  ret void
}

; Function Attrs: mustprogress uwtable
define linkonce_odr hidden noundef i32 @_ZNK4cvc58internal4expr9NodeValue11getMetaKindEv(ptr noundef nonnull align 8 dereferenceable(24) %0) #6 comdat align 2 {
  %2 = alloca ptr, align 8
  store ptr %0, ptr %2, align 8, !tbaa !4
  %3 = load ptr, ptr %2, align 8
  %4 = call noundef i32 @_ZNK4cvc58internal4expr9NodeValue7getKindEv(ptr noundef nonnull align 8 dereferenceable(24) %3)
  %5 = call noundef i32 @_ZN4cvc58internal4kind10metaKindOfENS1_6Kind_tE(i32 noundef %4)
  ret i32 %5
}

; Function Attrs: mustprogress nounwind uwtable
define linkonce_odr hidden noundef zeroext i1 @_ZNK4cvc58internal8TypeNodeeqERKS1_(ptr noundef nonnull align 8 dereferenceable(8) %0, ptr noundef nonnull align 8 dereferenceable(8) %1) #8 comdat align 2 {
  %3 = alloca ptr, align 8
  %4 = alloca ptr, align 8
  store ptr %0, ptr %3, align 8, !tbaa !9
  store ptr %1, ptr %4, align 8, !tbaa !9
  %5 = load ptr, ptr %3, align 8
  %6 = getelementptr inbounds nuw %"class.cvc5::internal::TypeNode", ptr %5, i32 0, i32 0
  %7 = load ptr, ptr %6, align 8, !tbaa !11
  %8 = load ptr, ptr %4, align 8, !tbaa !9
  %9 = getelementptr inbounds nuw %"class.cvc5::internal::TypeNode", ptr %8, i32 0, i32 0
  %10 = load ptr, ptr %9, align 8, !tbaa !11
  %11 = icmp eq ptr %7, %10
  ret i1 %11
}

; Function Attrs: inlinehint mustprogress uwtable
define linkonce_odr hidden void @_ZN4cvc58internal8TypeNodeC2EPKNS0_4expr9NodeValueE(ptr noundef nonnull align 8 dereferenceable(8) %0, ptr noundef %1) unnamed_addr #4 comdat align 2 {
  %3 = alloca ptr, align 8
  %4 = alloca ptr, align 8
  store ptr %0, ptr %3, align 8, !tbaa !9
  store ptr %1, ptr %4, align 8, !tbaa !4
  %5 = load ptr, ptr %3, align 8
  %6 = getelementptr inbounds nuw %"class.cvc5::internal::TypeNode", ptr %5, i32 0, i32 0
  %7 = load ptr, ptr %4, align 8, !tbaa !4
  store ptr %7, ptr %6, align 8, !tbaa !11
  %8 = getelementptr inbounds nuw %"class.cvc5::internal::TypeNode", ptr %5, i32 0, i32 0
  %9 = load ptr, ptr %8, align 8, !tbaa !11
  call void @_ZN4cvc58internal4expr9NodeValue3incEv(ptr noundef nonnull align 8 dereferenceable(24) %9)
  ret void
}

; Function Attrs: inlinehint mustprogress uwtable
define linkonce_odr hidden noundef ptr @_ZNK4cvc58internal4expr9NodeValue8getChildEi(ptr noundef nonnull align 8 dereferenceable(24) %0, i32 noundef %1) #4 comdat align 2 {
  %3 = alloca ptr, align 8
  %4 = alloca i32, align 4
  store ptr %0, ptr %3, align 8, !tbaa !4
  store i32 %1, ptr %4, align 4, !tbaa !47
  %5 = load ptr, ptr %3, align 8
  %6 = call noundef i32 @_ZNK4cvc58internal4expr9NodeValue11getMetaKindEv(ptr noundef nonnull align 8 dereferenceable(24) %5)
  %7 = icmp eq i32 %6, 2
  br i1 %7, label %8, label %11

8:                                                ; preds = %2
  %9 = load i32, ptr %4, align 4, !tbaa !47
  %10 = add nsw i32 %9, 1
  store i32 %10, ptr %4, align 4, !tbaa !47
  br label %11

11:                                               ; preds = %8, %2
  %12 = getelementptr inbounds nuw %"class.cvc5::internal::expr::NodeValue", ptr %5, i32 0, i32 3
  %13 = load i32, ptr %4, align 4, !tbaa !47
  %14 = sext i32 %13 to i64
  %15 = getelementptr inbounds [0 x ptr], ptr %12, i64 0, i64 %14
  %16 = load ptr, ptr %15, align 8, !tbaa !4
  ret ptr %16
}

; Function Attrs: mustprogress nounwind uwtable
define linkonce_odr hidden noundef zeroext i1 @_ZNK4cvc58internal8TypeNodeneERKS1_(ptr noundef nonnull align 8 dereferenceable(8) %0, ptr noundef nonnull align 8 dereferenceable(8) %1) #8 comdat align 2 {
  %3 = alloca ptr, align 8
  %4 = alloca ptr, align 8
  store ptr %0, ptr %3, align 8, !tbaa !9
  store ptr %1, ptr %4, align 8, !tbaa !9
  %5 = load ptr, ptr %3, align 8
  %6 = load ptr, ptr %4, align 8, !tbaa !9
  %7 = call noundef zeroext i1 @_ZNK4cvc58internal8TypeNodeeqERKS1_(ptr noundef nonnull align 8 dereferenceable(8) %5, ptr noundef nonnull align 8 dereferenceable(8) %6)
  %8 = xor i1 %7, true
  ret i1 %8
}

; Function Attrs: inlinehint mustprogress uwtable
define linkonce_odr hidden void @_ZNK4cvc58internal8TypeNodeixEi(ptr dead_on_unwind noalias writable sret(%"class.cvc5::internal::TypeNode") align 8 %0, ptr noundef nonnull align 8 dereferenceable(8) %1, i32 noundef %2) #4 comdat align 2 {
  %4 = alloca ptr, align 8
  %5 = alloca ptr, align 8
  %6 = alloca i32, align 4
  store ptr %0, ptr %4, align 8
  store ptr %1, ptr %5, align 8, !tbaa !9
  store i32 %2, ptr %6, align 4, !tbaa !47
  %7 = load ptr, ptr %5, align 8
  %8 = getelementptr inbounds nuw %"class.cvc5::internal::TypeNode", ptr %7, i32 0, i32 0
  %9 = load ptr, ptr %8, align 8, !tbaa !11
  %10 = load i32, ptr %6, align 4, !tbaa !47
  %11 = call noundef ptr @_ZNK4cvc58internal4expr9NodeValue8getChildEi(ptr noundef nonnull align 8 dereferenceable(24) %9, i32 noundef %10)
  call void @_ZN4cvc58internal8TypeNodeC2EPKNS0_4expr9NodeValueE(ptr noundef nonnull align 8 dereferenceable(8) %0, ptr noundef %11)
  ret void
}

; Function Attrs: mustprogress uwtable
define noundef zeroext i1 @_ZNK4cvc58internal8TypeNode31isParameterInstantiatedDatatypeEm(ptr noundef nonnull align 8 dereferenceable(8) %0, i64 noundef %1) #6 align 2 personality ptr @__gxx_personality_v0 {
  %3 = alloca ptr, align 8
  %4 = alloca i64, align 8
  %5 = alloca ptr, align 8
  %6 = alloca %"class.cvc5::internal::TypeNode", align 8
  %7 = alloca ptr, align 8
  %8 = alloca i32, align 4
  %9 = alloca %"class.cvc5::internal::TypeNode", align 8
  %10 = alloca %"class.cvc5::internal::TypeNode", align 8
  store ptr %0, ptr %3, align 8, !tbaa !9
  store i64 %1, ptr %4, align 8, !tbaa !37
  %11 = load ptr, ptr %3, align 8
  call void @llvm.lifetime.start.p0(i64 8, ptr %5) #3
  call void @llvm.lifetime.start.p0(i64 8, ptr %6) #3
  call void @_ZNK4cvc58internal8TypeNodeixEi(ptr dead_on_unwind writable sret(%"class.cvc5::internal::TypeNode") align 8 %6, ptr noundef nonnull align 8 dereferenceable(8) %11, i32 noundef 0)
  %12 = invoke noundef nonnull align 8 dereferenceable(448) ptr @_ZNK4cvc58internal8TypeNode8getDTypeEv(ptr noundef nonnull align 8 dereferenceable(8) %6)
          to label %13 unwind label %22

13:                                               ; preds = %2
  call void @_ZN4cvc58internal8TypeNodeD2Ev(ptr noundef nonnull align 8 dereferenceable(8) %6) #3
  call void @llvm.lifetime.end.p0(i64 8, ptr %6) #3
  store ptr %12, ptr %5, align 8, !tbaa !39
  call void @llvm.lifetime.start.p0(i64 8, ptr %9) #3
  %14 = load ptr, ptr %5, align 8, !tbaa !39
  %15 = load i64, ptr %4, align 8, !tbaa !37
  call void @_ZNK4cvc58internal5DType12getParameterEm(ptr dead_on_unwind writable sret(%"class.cvc5::internal::TypeNode") align 8 %9, ptr noundef nonnull align 8 dereferenceable(448) %14, i64 noundef %15)
  call void @llvm.lifetime.start.p0(i64 8, ptr %10) #3
  %16 = load i64, ptr %4, align 8, !tbaa !37
  %17 = add i64 %16, 1
  %18 = trunc i64 %17 to i32
  invoke void @_ZNK4cvc58internal8TypeNodeixEi(ptr dead_on_unwind writable sret(%"class.cvc5::internal::TypeNode") align 8 %10, ptr noundef nonnull align 8 dereferenceable(8) %11, i32 noundef %18)
          to label %19 unwind label %26

19:                                               ; preds = %13
  %20 = invoke noundef zeroext i1 @_ZNK4cvc58internal8TypeNodeneERKS1_(ptr noundef nonnull align 8 dereferenceable(8) %9, ptr noundef nonnull align 8 dereferenceable(8) %10)
          to label %21 unwind label %30

21:                                               ; preds = %19
  call void @_ZN4cvc58internal8TypeNodeD2Ev(ptr noundef nonnull align 8 dereferenceable(8) %10) #3
  call void @llvm.lifetime.end.p0(i64 8, ptr %10) #3
  call void @_ZN4cvc58internal8TypeNodeD2Ev(ptr noundef nonnull align 8 dereferenceable(8) %9) #3
  call void @llvm.lifetime.end.p0(i64 8, ptr %9) #3
  call void @llvm.lifetime.end.p0(i64 8, ptr %5) #3
  ret i1 %20

22:                                               ; preds = %2
  %23 = landingpad { ptr, i32 }
          cleanup
  %24 = extractvalue { ptr, i32 } %23, 0
  store ptr %24, ptr %7, align 8
  %25 = extractvalue { ptr, i32 } %23, 1
  store i32 %25, ptr %8, align 4
  call void @_ZN4cvc58internal8TypeNodeD2Ev(ptr noundef nonnull align 8 dereferenceable(8) %6) #3
  call void @llvm.lifetime.end.p0(i64 8, ptr %6) #3
  br label %35

26:                                               ; preds = %13
  %27 = landingpad { ptr, i32 }
          cleanup
  %28 = extractvalue { ptr, i32 } %27, 0
  store ptr %28, ptr %7, align 8
  %29 = extractvalue { ptr, i32 } %27, 1
  store i32 %29, ptr %8, align 4
  br label %34

30:                                               ; preds = %19
  %31 = landingpad { ptr, i32 }
          cleanup
  %32 = extractvalue { ptr, i32 } %31, 0
  store ptr %32, ptr %7, align 8
  %33 = extractvalue { ptr, i32 } %31, 1
  store i32 %33, ptr %8, align 4
  call void @_ZN4cvc58internal8TypeNodeD2Ev(ptr noundef nonnull align 8 dereferenceable(8) %10) #3
  br label %34

34:                                               ; preds = %30, %26
  call void @llvm.lifetime.end.p0(i64 8, ptr %10) #3
  call void @_ZN4cvc58internal8TypeNodeD2Ev(ptr noundef nonnull align 8 dereferenceable(8) %9) #3
  call void @llvm.lifetime.end.p0(i64 8, ptr %9) #3
  br label %35

35:                                               ; preds = %34, %22
  call void @llvm.lifetime.end.p0(i64 8, ptr %5) #3
  br label %36

36:                                               ; preds = %35
  %37 = load ptr, ptr %7, align 8
  %38 = load i32, ptr %8, align 4
  %39 = insertvalue { ptr, i32 } poison, ptr %37, 0
  %40 = insertvalue { ptr, i32 } %39, i32 %38, 1
  resume { ptr, i32 } %40
}