; Function Attrs: mustprogress uwtable
define noundef zeroext i1 @_ZNK4cvc58internal8TypeNode31isParameterInstantiatedDatatypeEm(ptr noundef nonnull readonly align 8 captures(none) dereferenceable(8) %0, i64 noundef %1) local_unnamed_addr #4 align 2 personality ptr @__gxx_personality_v0 {
  %3 = alloca %"class.cvc5::internal::TypeNode", align 8
  %4 = alloca %"class.cvc5::internal::TypeNode", align 8
  call void @llvm.lifetime.start.p0(i64 8, ptr nonnull %3) #24
  tail call void @llvm.experimental.noalias.scope.decl(metadata !259)
  %5 = load ptr, ptr %0, align 8, !tbaa !3, !noalias !259
  %6 = getelementptr inbounds nuw i8, ptr %5, i64 8
  %7 = load i64, ptr %6, align 8, !noalias !259
  %8 = trunc i64 %7 to i32
  %9 = and i32 %8, 1023
  %10 = icmp eq i32 %9, 1023
  %11 = select i1 %10, i32 -1, i32 %9
  %12 = tail call noundef i32 @_ZN4cvc58internal4kind10metaKindOfENS1_6Kind_tE(i32 noundef %11), !noalias !259
  %13 = icmp eq i32 %12, 2
  %14 = getelementptr inbounds nuw i8, ptr %5, i64 24
  %15 = zext i1 %13 to i64
  %16 = getelementptr inbounds nuw [0 x ptr], ptr %14, i64 0, i64 %15
  %17 = load ptr, ptr %16, align 8, !tbaa !32, !noalias !259
  store ptr %17, ptr %3, align 8, !tbaa !3, !alias.scope !259
  %18 = load i64, ptr %17, align 8, !noalias !259
  %19 = lshr i64 %18, 40
  %20 = trunc nuw nsw i64 %19 to i32
  %21 = and i32 %20, 1048575
  %22 = icmp samesign ult i32 %21, 1048574
  br i1 %22, label %23, label %28, !prof !27

23:                                               ; preds = %2
  %24 = add i64 %18, 1099511627776
  %25 = and i64 %24, 1152920405095219200
  %26 = and i64 %18, -1152920405095219201
  %27 = or disjoint i64 %25, %26
  store i64 %27, ptr %17, align 8, !noalias !259
  br label %_ZNK4cvc58internal8TypeNodeixEi.exit

28:                                               ; preds = %2
  %29 = icmp eq i32 %21, 1048574
  br i1 %29, label %30, label %_ZNK4cvc58internal8TypeNodeixEi.exit, !prof !9

30:                                               ; preds = %28
  %31 = or i64 %18, 1152920405095219200
  store i64 %31, ptr %17, align 8, !noalias !259
  tail call void @_ZN4cvc58internal4expr9NodeValue20markRefCountMaxedOutEv(ptr noundef nonnull align 8 dereferenceable(24) %17), !noalias !259
  br label %_ZNK4cvc58internal8TypeNodeixEi.exit

_ZNK4cvc58internal8TypeNodeixEi.exit:             ; preds = %23, %28, %30
  %32 = invoke noundef nonnull align 8 dereferenceable(448) ptr @_ZNK4cvc58internal8TypeNode8getDTypeEv(ptr noundef nonnull align 8 dereferenceable(8) %3)
          to label %33 unwind label %102

33:                                               ; preds = %_ZNK4cvc58internal8TypeNodeixEi.exit
  %34 = load i64, ptr %17, align 8
  %35 = and i64 %34, 1152920405095219200
  %.not.i.i = icmp eq i64 %35, 1152920405095219200
  br i1 %.not.i.i, label %_ZN4cvc58internal8TypeNodeD2Ev.exit, label %36, !prof !9

36:                                               ; preds = %33
  %37 = add i64 %34, 1152920405095219200
  %38 = and i64 %37, 1152920405095219200
  %39 = and i64 %34, -1152920405095219201
  %40 = or disjoint i64 %38, %39
  store i64 %40, ptr %17, align 8
  %41 = icmp eq i64 %38, 0
  br i1 %41, label %42, label %_ZN4cvc58internal8TypeNodeD2Ev.exit, !prof !9

42:                                               ; preds = %36
  invoke void @_ZN4cvc58internal4expr9NodeValue15markForDeletionEv(ptr noundef nonnull align 8 dereferenceable(24) %17)
          to label %_ZN4cvc58internal8TypeNodeD2Ev.exit unwind label %43

43:                                               ; preds = %42
  %44 = landingpad { ptr, i32 }
          catch ptr null
  %45 = extractvalue { ptr, i32 } %44, 0
  tail call void @__clang_call_terminate(ptr %45) #23
  unreachable

_ZN4cvc58internal8TypeNodeD2Ev.exit:              ; preds = %33, %36, %42
  call void @llvm.lifetime.end.p0(i64 8, ptr nonnull %3) #24
  call void @llvm.lifetime.start.p0(i64 8, ptr nonnull %4) #24
  call void @_ZNK4cvc58internal5DType12getParameterEm(ptr dead_on_unwind nonnull writable sret(%"class.cvc5::internal::TypeNode") align 8 %4, ptr noundef nonnull align 8 dereferenceable(448) %32, i64 noundef %1)
  %46 = load ptr, ptr %0, align 8, !tbaa !3, !noalias !262
  %47 = getelementptr inbounds nuw i8, ptr %46, i64 8
  %48 = load i64, ptr %47, align 8, !noalias !262
  %49 = trunc i64 %48 to i32
  %50 = and i32 %49, 1023
  %51 = icmp eq i32 %50, 1023
  %52 = select i1 %51, i32 -1, i32 %50
  %53 = invoke noundef i32 @_ZN4cvc58internal4kind10metaKindOfENS1_6Kind_tE(i32 noundef %52)
          to label %.noexc unwind label %104

.noexc:                                           ; preds = %_ZN4cvc58internal8TypeNodeD2Ev.exit
  %54 = add i64 %1, 1
  %55 = icmp eq i32 %53, 2
  %56 = zext i1 %55 to i64
  %spec.select.i.i = add i64 %54, %56
  %57 = getelementptr inbounds nuw i8, ptr %46, i64 24
  %sext = shl i64 %spec.select.i.i, 32
  %58 = ashr exact i64 %sext, 32
  %59 = getelementptr inbounds [0 x ptr], ptr %57, i64 0, i64 %58
  %60 = load ptr, ptr %59, align 8, !tbaa !32, !noalias !262
  %61 = load i64, ptr %60, align 8, !noalias !262
  %62 = lshr i64 %61, 40
  %63 = trunc nuw nsw i64 %62 to i32
  %64 = and i32 %63, 1048575
  %65 = icmp samesign ult i32 %64, 1048574
  br i1 %65, label %66, label %71, !prof !27

66:                                               ; preds = %.noexc
  %67 = add i64 %61, 1099511627776
  %68 = and i64 %67, 1152920405095219200
  %69 = and i64 %61, -1152920405095219201
  %70 = or disjoint i64 %68, %69
  store i64 %70, ptr %60, align 8, !noalias !262
  br label %_ZNK4cvc58internal8TypeNodeixEi.exit8

71:                                               ; preds = %.noexc
  %72 = icmp eq i32 %64, 1048574
  br i1 %72, label %73, label %_ZNK4cvc58internal8TypeNodeixEi.exit8, !prof !9

73:                                               ; preds = %71
  %74 = or i64 %61, 1152920405095219200
  store i64 %74, ptr %60, align 8, !noalias !262
  invoke void @_ZN4cvc58internal4expr9NodeValue20markRefCountMaxedOutEv(ptr noundef nonnull align 8 dereferenceable(24) %60)
          to label %._ZNK4cvc58internal8TypeNodeixEi.exit8_crit_edge unwind label %104

._ZNK4cvc58internal8TypeNodeixEi.exit8_crit_edge: ; preds = %73
  %.pre = load i64, ptr %60, align 8
  br label %_ZNK4cvc58internal8TypeNodeixEi.exit8

_ZNK4cvc58internal8TypeNodeixEi.exit8:            ; preds = %._ZNK4cvc58internal8TypeNodeixEi.exit8_crit_edge, %71, %66
  %75 = phi i64 [ %.pre, %._ZNK4cvc58internal8TypeNodeixEi.exit8_crit_edge ], [ %61, %71 ], [ %70, %66 ]
  %76 = load ptr, ptr %4, align 8, !tbaa !3
  %77 = and i64 %75, 1152920405095219200
  %.not.i.i9 = icmp eq i64 %77, 1152920405095219200
  br i1 %.not.i.i9, label %_ZN4cvc58internal8TypeNodeD2Ev.exit10, label %78, !prof !9

78:                                               ; preds = %_ZNK4cvc58internal8TypeNodeixEi.exit8
  %79 = add i64 %75, 1152920405095219200
  %80 = and i64 %79, 1152920405095219200
  %81 = and i64 %75, -1152920405095219201
  %82 = or disjoint i64 %80, %81
  store i64 %82, ptr %60, align 8
  %83 = icmp eq i64 %80, 0
  br i1 %83, label %84, label %_ZN4cvc58internal8TypeNodeD2Ev.exit10, !prof !9

84:                                               ; preds = %78
  invoke void @_ZN4cvc58internal4expr9NodeValue15markForDeletionEv(ptr noundef nonnull align 8 dereferenceable(24) %60)
          to label %_ZN4cvc58internal8TypeNodeD2Ev.exit10 unwind label %85

85:                                               ; preds = %84
  %86 = landingpad { ptr, i32 }
          catch ptr null
  %87 = extractvalue { ptr, i32 } %86, 0
  call void @__clang_call_terminate(ptr %87) #23
  unreachable

_ZN4cvc58internal8TypeNodeD2Ev.exit10:            ; preds = %_ZNK4cvc58internal8TypeNodeixEi.exit8, %78, %84
  %88 = load ptr, ptr %4, align 8, !tbaa !3
  %89 = load i64, ptr %88, align 8
  %90 = and i64 %89, 1152920405095219200
  %.not.i.i11 = icmp eq i64 %90, 1152920405095219200
  br i1 %.not.i.i11, label %_ZN4cvc58internal8TypeNodeD2Ev.exit12, label %91, !prof !9

91:                                               ; preds = %_ZN4cvc58internal8TypeNodeD2Ev.exit10
  %92 = add i64 %89, 1152920405095219200
  %93 = and i64 %92, 1152920405095219200
  %94 = and i64 %89, -1152920405095219201
  %95 = or disjoint i64 %93, %94
  store i64 %95, ptr %88, align 8
  %96 = icmp eq i64 %93, 0
  br i1 %96, label %97, label %_ZN4cvc58internal8TypeNodeD2Ev.exit12, !prof !9

97:                                               ; preds = %91
  invoke void @_ZN4cvc58internal4expr9NodeValue15markForDeletionEv(ptr noundef nonnull align 8 dereferenceable(24) %88)
          to label %_ZN4cvc58internal8TypeNodeD2Ev.exit12 unwind label %98

98:                                               ; preds = %97
  %99 = landingpad { ptr, i32 }
          catch ptr null
  %100 = extractvalue { ptr, i32 } %99, 0
  call void @__clang_call_terminate(ptr %100) #23
  unreachable

_ZN4cvc58internal8TypeNodeD2Ev.exit12:            ; preds = %_ZN4cvc58internal8TypeNodeD2Ev.exit10, %91, %97
  %101 = icmp ne ptr %76, %60
  call void @llvm.lifetime.end.p0(i64 8, ptr nonnull %4) #24
  ret i1 %101

102:                                              ; preds = %_ZNK4cvc58internal8TypeNodeixEi.exit
  %103 = landingpad { ptr, i32 }
          cleanup
  call void @_ZN4cvc58internal8TypeNodeD2Ev(ptr noundef nonnull align 8 dereferenceable(8) %3) #24
  call void @llvm.lifetime.end.p0(i64 8, ptr nonnull %3) #24
  br label %106

104:                                              ; preds = %73, %_ZN4cvc58internal8TypeNodeD2Ev.exit
  %105 = landingpad { ptr, i32 }
          cleanup
  call void @_ZN4cvc58internal8TypeNodeD2Ev(ptr noundef nonnull align 8 dereferenceable(8) %4) #24
  call void @llvm.lifetime.end.p0(i64 8, ptr nonnull %4) #24
  br label %106

106:                                              ; preds = %104, %102
  %.pn = phi { ptr, i32 } [ %105, %104 ], [ %103, %102 ]
  resume { ptr, i32 } %.pn
}